target datalayout = "e-m:e-p270:32:32-p271:32:32-p272:64:64-i64:64-i128:128-f80:128-n8:16:32:64-S128"
target triple = "x86_64-pc-linux-gnu"

%struct.evthread_lock_callbacks = type { i32, i32, ptr, ptr, ptr, ptr }
%struct.ev_token_bucket = type { i64, i64, i32 }
%struct.ev_token_bucket_cfg = type { i64, i64, i64, i64, %struct.timeval, i32 }
%struct.timeval = type { i64, i64 }
%struct.event = type { %struct.event_callback, %union.anon.0, i32, i16, i16, ptr, %union.anon.2, %struct.timeval }
%union.anon.0 = type { %struct.anon.1 }
%struct.anon.1 = type { ptr, ptr }
%union.anon.2 = type { %struct.anon.3 }
%struct.anon.3 = type { %struct.anon.4, %struct.timeval }
%struct.anon.4 = type { ptr, ptr }
%struct.event_callback = type { %struct.anon, i16, i8, i8, %union.anon, ptr }
%struct.anon = type { ptr, ptr }
%union.anon = type { ptr }
%struct.bufferevent_rate_limit_group = type { %struct.rlim_group_member_list, %struct.ev_token_bucket, %struct.ev_token_bucket_cfg, i8, i64, i64, i32, i64, i64, %struct.event, %struct.evutil_weakrand_state, ptr }
%struct.rlim_group_member_list = type { ptr }
%struct.evutil_weakrand_state = type { i32 }

@evthread_lock_fns_ = external global %struct.evthread_lock_callbacks, align 8

; Function Attrs: nounwind uwtable
define i64 @bufferevent_rate_limit_group_get_write_limit(ptr noundef %0) #0 {
  %2 = alloca ptr, align 8
  %3 = alloca i64, align 8
  store ptr %0, ptr %2, align 8
  call void @llvm.lifetime.start.p0(i64 8, ptr %3) #5
  br label %4

4:                                                ; preds = %1
  %5 = load ptr, ptr %2, align 8
  %6 = getelementptr inbounds nuw %struct.bufferevent_rate_limit_group, ptr %5, i32 0, i32 11
  %7 = load ptr, ptr %6, align 8
  %8 = icmp ne ptr %7, null
  br i1 %8, label %9, label %15

9:                                                ; preds = %4
  %10 = load ptr, ptr getelementptr inbounds nuw (%struct.evthread_lock_callbacks, ptr @evthread_lock_fns_, i32 0, i32 4), align 8
  %11 = load ptr, ptr %2, align 8
  %12 = getelementptr inbounds nuw %struct.bufferevent_rate_limit_group, ptr %11, i32 0, i32 11
  %13 = load ptr, ptr %12, align 8
  %14 = call i32 %10(i32 noundef 0, ptr noundef %13)
  br label %15

15:                                               ; preds = %9, %4
  br label %16

16:                                               ; preds = %15
  br label %17

17:                                               ; preds = %16
  %18 = load ptr, ptr %2, align 8
  %19 = getelementptr inbounds nuw %struct.bufferevent_rate_limit_group, ptr %18, i32 0, i32 1
  %20 = getelementptr inbounds nuw %struct.ev_token_bucket, ptr %19, i32 0, i32 1
  %21 = load i64, ptr %20, align 8
  store i64 %21, ptr %3, align 8
  br label %22

22:                                               ; preds = %17
  %23 = load ptr, ptr %2, align 8
  %24 = getelementptr inbounds nuw %struct.bufferevent_rate_limit_group, ptr %23, i32 0, i32 11
  %25 = load ptr, ptr %24, align 8
  %26 = icmp ne ptr %25, null
  br i1 %26, label %27, label %33

27:                                               ; preds = %22
  %28 = load ptr, ptr getelementptr inbounds nuw (%struct.evthread_lock_callbacks, ptr @evthread_lock_fns_, i32 0, i32 5), align 8
  %29 = load ptr, ptr %2, align 8
  %30 = getelementptr inbounds nuw %struct.bufferevent_rate_limit_group, ptr %29, i32 0, i32 11
  %31 = load ptr, ptr %30, align 8
  %32 = call i32 %28(i32 noundef 0, ptr noundef %31)
  br label %33

33:                                               ; preds = %27, %22
  br label %34

34:                                               ; preds = %33
  br label %35

35:                                               ; preds = %34
  %36 = load i64, ptr %3, align 8
  call void @llvm.lifetime.end.p0(i64 8, ptr %3) #5
  ret i64 %36
}